target datalayout = "e-m:e-p270:32:32-p271:32:32-p272:64:64-i64:64-i128:128-f80:128-n8:16:32:64-S128"
target triple = "x86_64-pc-linux-gnu"

%struct.TestNode = type { ptr, ptr, ptr, [1 x i8] }

@.str.6 = private unnamed_addr constant [22 x i8] c"TEST CAN'T BE FOUND!\0A\00", align 1

; Function Attrs: nounwind uwtable
define internal i32 @strncmp_nullcheck(ptr noundef %0, ptr noundef %1, i32 noundef %2) #0 {
  %4 = alloca i32, align 4
  %5 = alloca ptr, align 8
  %6 = alloca ptr, align 8
  %7 = alloca i32, align 4
  store ptr %0, ptr %5, align 8, !tbaa !15
  store ptr %1, ptr %6, align 8, !tbaa !15
  store i32 %2, ptr %7, align 4, !tbaa !18
  %8 = load ptr, ptr %6, align 8, !tbaa !15
  %9 = call i64 @strlen(ptr noundef %8) #14
  %10 = trunc i64 %9 to i32
  %11 = load i32, ptr %7, align 4, !tbaa !18
  %12 = icmp sge i32 %10, %11
  br i1 %12, label %13, label %22

13:                                               ; preds = %3
  %14 = load ptr, ptr %6, align 8, !tbaa !15
  %15 = load i32, ptr %7, align 4, !tbaa !18
  %16 = sext i32 %15 to i64
  %17 = getelementptr inbounds i8, ptr %14, i64 %16
  %18 = load i8, ptr %17, align 1, !tbaa !20
  %19 = sext i8 %18 to i32
  %20 = icmp ne i32 %19, 0
  br i1 %20, label %21, label %22

21:                                               ; preds = %13
  store i32 3, ptr %4, align 4
  br label %28

22:                                               ; preds = %13, %3
  %23 = load ptr, ptr %5, align 8, !tbaa !15
  %24 = load ptr, ptr %6, align 8, !tbaa !15
  %25 = load i32, ptr %7, align 4, !tbaa !18
  %26 = sext i32 %25 to i64
  %27 = call i32 @strncmp(ptr noundef %23, ptr noundef %24, i64 noundef %26) #14
  store i32 %27, ptr %4, align 4
  br label %28

28:                                               ; preds = %22, %21
  %29 = load i32, ptr %4, align 4
  ret i32 %29
}

; Function Attrs: nounwind uwtable
define internal void @getNextLevel(ptr noundef %0, ptr noundef %1, ptr noundef %2) #0 {
  %4 = alloca ptr, align 8
  %5 = alloca ptr, align 8
  %6 = alloca ptr, align 8
  %7 = alloca [255 x i8], align 16
  store ptr %0, ptr %4, align 8, !tbaa !15
  store ptr %1, ptr %5, align 8, !tbaa !32
  store ptr %2, ptr %6, align 8, !tbaa !34
  %8 = load ptr, ptr %4, align 8, !tbaa !15
  %9 = call ptr @strchr(ptr noundef %8, i32 noundef 47) #14
  %10 = load ptr, ptr %6, align 8, !tbaa !34
  store ptr %9, ptr %10, align 8, !tbaa !15
  %11 = load ptr, ptr %6, align 8, !tbaa !34
  %12 = load ptr, ptr %11, align 8, !tbaa !15
  %13 = icmp ne ptr %12, null
  br i1 %13, label %14, label %36

14:                                               ; preds = %3
  call void @llvm.lifetime.start.p0(i64 255, ptr %7) #12
  %15 = load ptr, ptr %6, align 8, !tbaa !34
  %16 = load ptr, ptr %15, align 8, !tbaa !15
  %17 = load ptr, ptr %4, align 8, !tbaa !15
  %18 = ptrtoint ptr %16 to i64
  %19 = ptrtoint ptr %17 to i64
  %20 = sub i64 %18, %19
  %21 = trunc i64 %20 to i32
  %22 = load ptr, ptr %5, align 8, !tbaa !32
  store i32 %21, ptr %22, align 4, !tbaa !18
  %23 = load ptr, ptr %6, align 8, !tbaa !34
  %24 = load ptr, ptr %23, align 8, !tbaa !15
  %25 = getelementptr inbounds nuw i8, ptr %24, i32 1
  store ptr %25, ptr %23, align 8, !tbaa !15
  %26 = getelementptr inbounds [255 x i8], ptr %7, i64 0, i64 0
  %27 = load ptr, ptr %4, align 8, !tbaa !15
  %28 = load ptr, ptr %5, align 8, !tbaa !32
  %29 = load i32, ptr %28, align 4, !tbaa !18
  %30 = sext i32 %29 to i64
  %31 = call ptr @strncpy(ptr noundef %26, ptr noundef %27, i64 noundef %30) #12
  %32 = load ptr, ptr %5, align 8, !tbaa !32
  %33 = load i32, ptr %32, align 4, !tbaa !18
  %34 = sext i32 %33 to i64
  %35 = getelementptr inbounds [255 x i8], ptr %7, i64 0, i64 %34
  store i8 0, ptr %35, align 1, !tbaa !20
  call void @llvm.lifetime.end.p0(i64 255, ptr %7) #12
  br label %41

36:                                               ; preds = %3
  %37 = load ptr, ptr %4, align 8, !tbaa !15
  %38 = call i64 @strlen(ptr noundef %37) #14
  %39 = trunc i64 %38 to i32
  %40 = load ptr, ptr %5, align 8, !tbaa !32
  store i32 %39, ptr %40, align 4, !tbaa !18
  br label %41

41:                                               ; preds = %36, %14
  ret void
}

; Function Attrs: nounwind uwtable
define ptr @getTest(ptr noundef %0, ptr noundef %1) #0 {
  %3 = alloca ptr, align 8
  %4 = alloca ptr, align 8
  %5 = alloca ptr, align 8
  %6 = alloca ptr, align 8
  %7 = alloca ptr, align 8
  %8 = alloca ptr, align 8
  %9 = alloca i32, align 4
  %10 = alloca i32, align 4
  store ptr %0, ptr %4, align 8, !tbaa !3
  store ptr %1, ptr %5, align 8, !tbaa !15
  call void @llvm.lifetime.start.p0(i64 8, ptr %6) #12
  call void @llvm.lifetime.start.p0(i64 8, ptr %7) #12
  call void @llvm.lifetime.start.p0(i64 8, ptr %8) #12
  call void @llvm.lifetime.start.p0(i64 4, ptr %9) #12
  %11 = load ptr, ptr %4, align 8, !tbaa !3
  %12 = icmp eq ptr %11, null
  br i1 %12, label %13, label %14

13:                                               ; preds = %2
  call void (ptr, ...) @log_err(ptr noundef @.str.6)
  store ptr null, ptr %3, align 8
  store i32 1, ptr %10, align 4
  br label %58

14:                                               ; preds = %2
  %15 = load ptr, ptr %5, align 8, !tbaa !15
  %16 = load i8, ptr %15, align 1, !tbaa !20
  %17 = sext i8 %16 to i32
  %18 = icmp eq i32 %17, 47
  br i1 %18, label %19, label %22

19:                                               ; preds = %14
  %20 = load ptr, ptr %5, align 8, !tbaa !15
  %21 = getelementptr inbounds nuw i8, ptr %20, i32 1
  store ptr %21, ptr %5, align 8, !tbaa !15
  br label %22

22:                                               ; preds = %19, %14
  %23 = load ptr, ptr %4, align 8, !tbaa !3
  store ptr %23, ptr %8, align 8, !tbaa !3
  br label %24

24:                                               ; preds = %55, %22
  %25 = load ptr, ptr %8, align 8, !tbaa !3
  %26 = getelementptr inbounds nuw %struct.TestNode, ptr %25, i32 0, i32 2
  %27 = load ptr, ptr %26, align 8, !tbaa !8
  store ptr %27, ptr %7, align 8, !tbaa !3
  %28 = load ptr, ptr %5, align 8, !tbaa !15
  call void @getNextLevel(ptr noundef %28, ptr noundef %9, ptr noundef %6)
  %29 = load ptr, ptr %7, align 8, !tbaa !3
  %30 = icmp eq ptr %29, null
  br i1 %30, label %31, label %32

31:                                               ; preds = %24
  store ptr null, ptr %3, align 8
  store i32 1, ptr %10, align 4
  br label %58

32:                                               ; preds = %24
  br label %33

33:                                               ; preds = %49, %32
  %34 = load ptr, ptr %5, align 8, !tbaa !15
  %35 = load ptr, ptr %7, align 8, !tbaa !3
  %36 = getelementptr inbounds nuw %struct.TestNode, ptr %35, i32 0, i32 3
  %37 = getelementptr inbounds [1 x i8], ptr %36, i64 0, i64 0
  %38 = load i32, ptr %9, align 4, !tbaa !18
  %39 = call i32 @strncmp_nullcheck(ptr noundef %34, ptr noundef %37, i32 noundef %38)
  %40 = icmp ne i32 %39, 0
  br i1 %40, label %41, label %50

41:                                               ; preds = %33
  %42 = load ptr, ptr %7, align 8, !tbaa !3
  store ptr %42, ptr %8, align 8, !tbaa !3
  %43 = load ptr, ptr %7, align 8, !tbaa !3
  %44 = getelementptr inbounds nuw %struct.TestNode, ptr %43, i32 0, i32 1
  %45 = load ptr, ptr %44, align 8, !tbaa !10
  store ptr %45, ptr %7, align 8, !tbaa !3
  %46 = load ptr, ptr %7, align 8, !tbaa !3
  %47 = icmp eq ptr %46, null
  br i1 %47, label %48, label %49

48:                                               ; preds = %41
  store ptr null, ptr %3, align 8
  store i32 1, ptr %10, align 4
  br label %58

49:                                               ; preds = %41
  br label %33, !llvm.loop !31

50:                                               ; preds = %33
  %51 = load ptr, ptr %6, align 8, !tbaa !15
  %52 = icmp eq ptr %51, null
  br i1 %52, label %53, label %55

53:                                               ; preds = %50
  %54 = load ptr, ptr %7, align 8, !tbaa !3
  store ptr %54, ptr %3, align 8
  store i32 1, ptr %10, align 4
  br label %58

55:                                               ; preds = %50
  %56 = load ptr, ptr %6, align 8, !tbaa !15
  store ptr %56, ptr %5, align 8, !tbaa !15
  %57 = load ptr, ptr %7, align 8, !tbaa !3
  store ptr %57, ptr %8, align 8, !tbaa !3
  br label %24

58:                                               ; preds = %53, %48, %31, %13
  call void @llvm.lifetime.end.p0(i64 4, ptr %9) #12
  call void @llvm.lifetime.end.p0(i64 8, ptr %8) #12
  call void @llvm.lifetime.end.p0(i64 8, ptr %7) #12
  call void @llvm.lifetime.end.p0(i64 8, ptr %6) #12
  %59 = load ptr, ptr %3, align 8
  ret ptr %59
}