; Function Attrs: nofree nounwind uwtable
define ptr @getTest(ptr noundef readonly %0, ptr noundef %1) local_unnamed_addr #2 {
  %3 = icmp eq ptr %0, null
  br i1 %3, label %4, label %5

4:                                                ; preds = %2
  tail call void (ptr, ...) @log_err(ptr noundef nonnull @.str.6)
  br label %.loopexit

5:                                                ; preds = %2
  %6 = load i8, ptr %1, align 1, !tbaa !11
  %7 = icmp eq i8 %6, 47
  %spec.select.idx = zext i1 %7 to i64
  %spec.select = getelementptr inbounds nuw i8, ptr %1, i64 %spec.select.idx
  br label %8

8:                                                ; preds = %31, %5
  %.1 = phi ptr [ %spec.select, %5 ], [ %.023, %31 ]
  %.0 = phi ptr [ %0, %5 ], [ %.015, %31 ]
  %9 = getelementptr inbounds nuw i8, ptr %.0, i64 16
  %10 = load ptr, ptr %9, align 8, !tbaa !3
  %11 = tail call ptr @strchr(ptr noundef nonnull dereferenceable(1) %.1, i32 noundef 47) #25
  %.not.i = icmp eq ptr %11, null
  br i1 %.not.i, label %17, label %12

12:                                               ; preds = %8
  %13 = ptrtoint ptr %11 to i64
  %14 = ptrtoint ptr %.1 to i64
  %15 = sub i64 %13, %14
  %16 = getelementptr inbounds nuw i8, ptr %11, i64 1
  br label %getNextLevel.exit

17:                                               ; preds = %8
  %18 = tail call i64 @strlen(ptr noundef nonnull dereferenceable(1) %.1) #25
  br label %getNextLevel.exit

getNextLevel.exit:                                ; preds = %12, %17
  %.023 = phi ptr [ null, %17 ], [ %16, %12 ]
  %.sink.in.i = phi i64 [ %18, %17 ], [ %15, %12 ]
  %.sink.i = trunc i64 %.sink.in.i to i32
  %19 = icmp eq ptr %10, null
  br i1 %19, label %.loopexit, label %.preheader

.preheader:                                       ; preds = %getNextLevel.exit
  %sext = shl i64 %.sink.in.i, 32
  %.pre.i = ashr exact i64 %sext, 32
  br label %20

20:                                               ; preds = %.preheader, %strncmp_nullcheck.exit.thread
  %.015 = phi ptr [ %29, %strncmp_nullcheck.exit.thread ], [ %10, %.preheader ]
  %21 = getelementptr inbounds nuw i8, ptr %.015, i64 24
  %22 = tail call i64 @strlen(ptr noundef nonnull readonly dereferenceable(1) %21) #25
  %23 = trunc i64 %22 to i32
  %.not.i22 = icmp sgt i32 %.sink.i, %23
  br i1 %.not.i22, label %strncmp_nullcheck.exit, label %24

24:                                               ; preds = %20
  %25 = getelementptr inbounds i8, ptr %21, i64 %.pre.i
  %26 = load i8, ptr %25, align 1, !tbaa !11
  %.not8.i = icmp eq i8 %26, 0
  br i1 %.not8.i, label %strncmp_nullcheck.exit, label %strncmp_nullcheck.exit.thread

strncmp_nullcheck.exit:                           ; preds = %20, %24
  %27 = tail call i32 @strncmp(ptr noundef nonnull readonly %.1, ptr noundef nonnull readonly %21, i64 noundef %.pre.i) #25
  %.not = icmp eq i32 %27, 0
  br i1 %.not, label %31, label %strncmp_nullcheck.exit.thread

strncmp_nullcheck.exit.thread:                    ; preds = %24, %strncmp_nullcheck.exit
  %28 = getelementptr inbounds nuw i8, ptr %.015, i64 8
  %29 = load ptr, ptr %28, align 8, !tbaa !9
  %30 = icmp eq ptr %29, null
  br i1 %30, label %.loopexit, label %20, !llvm.loop !26

31:                                               ; preds = %strncmp_nullcheck.exit
  %32 = icmp eq ptr %.023, null
  br i1 %32, label %.loopexit, label %8

.loopexit:                                        ; preds = %31, %getNextLevel.exit, %strncmp_nullcheck.exit.thread, %4
  %.017 = phi ptr [ null, %4 ], [ null, %strncmp_nullcheck.exit.thread ], [ %.015, %31 ], [ null, %getNextLevel.exit ]
  ret ptr %.017
}